target datalayout = "e-m:e-p270:32:32-p271:32:32-p272:64:64-i64:64-i128:128-f80:128-n8:16:32:64-S128"
target triple = "x86_64-pc-linux-gnu"

%struct.mz_zip_archive = type { i64, i64, i32, i32, i32, i32, i64, ptr, ptr, ptr, ptr, ptr, ptr, ptr, ptr, ptr }

; Function Attrs: nounwind uwtable
define i32 @zip_stream_extract(ptr noundef %0, i64 noundef %1, ptr noundef %2, ptr noundef %3, ptr noundef %4) #0 {
  %6 = alloca i32, align 4
  %7 = alloca ptr, align 8
  %8 = alloca i64, align 8
  %9 = alloca ptr, align 8
  %10 = alloca ptr, align 8
  %11 = alloca ptr, align 8
  %12 = alloca %struct.mz_zip_archive, align 8
  %13 = alloca i32, align 4
  store ptr %0, ptr %7, align 8
  store i64 %1, ptr %8, align 8
  store ptr %2, ptr %9, align 8
  store ptr %3, ptr %10, align 8
  store ptr %4, ptr %11, align 8
  call void @llvm.lifetime.start.p0(i64 112, ptr %12) #13
  %14 = load ptr, ptr %7, align 8
  %15 = icmp ne ptr %14, null
  br i1 %15, label %16, label %19

16:                                               ; preds = %5
  %17 = load ptr, ptr %9, align 8
  %18 = icmp ne ptr %17, null
  br i1 %18, label %20, label %19

19:                                               ; preds = %16, %5
  store i32 -1, ptr %6, align 4
  store i32 1, ptr %13, align 4
  br label %34

20:                                               ; preds = %16
  call void @llvm.memset.p0.i64(ptr align 8 %12, i8 0, i64 112, i1 false)
  %21 = icmp ne ptr %12, null
  br i1 %21, label %23, label %22

22:                                               ; preds = %20
  store i32 -7, ptr %6, align 4
  store i32 1, ptr %13, align 4
  br label %34

23:                                               ; preds = %20
  %24 = load ptr, ptr %7, align 8
  %25 = load i64, ptr %8, align 8
  %26 = call i32 @mz_zip_reader_init_mem(ptr noundef %12, ptr noundef %24, i64 noundef %25, i32 noundef 0)
  %27 = icmp ne i32 %26, 0
  br i1 %27, label %29, label %28

28:                                               ; preds = %23
  store i32 -1, ptr %6, align 4
  store i32 1, ptr %13, align 4
  br label %34

29:                                               ; preds = %23
  %30 = load ptr, ptr %9, align 8
  %31 = load ptr, ptr %10, align 8
  %32 = load ptr, ptr %11, align 8
  %33 = call i32 @zip_archive_extract(ptr noundef %12, ptr noundef %30, ptr noundef %31, ptr noundef %32)
  store i32 %33, ptr %6, align 4
  store i32 1, ptr %13, align 4
  br label %34

34:                                               ; preds = %29, %28, %22, %19
  call void @llvm.lifetime.end.p0(i64 112, ptr %12) #13
  %35 = load i32, ptr %6, align 4
  ret i32 %35
}