; Function Attrs: nounwind uwtable
define range(i32 -25, 1) i32 @zip_stream_extract(ptr noundef %0, i64 noundef %1, ptr noundef readonly captures(address_is_null) %2, ptr noundef captures(address_is_null) %3, ptr noundef %4) local_unnamed_addr #8 {
  %6 = alloca %struct.mz_zip_archive, align 8
  call void @llvm.lifetime.start.p0(i64 112, ptr nonnull %6) #34
  %7 = icmp ne ptr %0, null
  %8 = icmp ne ptr %2, null
  %or.cond = and i1 %7, %8
  br i1 %or.cond, label %9, label %13

9:                                                ; preds = %5
  call void @llvm.memset.p0.i64(ptr noundef nonnull align 8 dereferenceable(112) %6, i8 0, i64 112, i1 false)
  %10 = call i32 @mz_zip_reader_init_mem(ptr noundef nonnull %6, ptr noundef nonnull %0, i64 noundef %1, i32 noundef 0)
  %.not = icmp eq i32 %10, 0
  br i1 %.not, label %13, label %11

11:                                               ; preds = %9
  %12 = call fastcc i32 @zip_archive_extract(ptr noundef %6, ptr noundef %2, ptr noundef %3, ptr noundef %4)
  br label %13

13:                                               ; preds = %9, %5, %11
  %.0 = phi i32 [ %12, %11 ], [ -1, %5 ], [ -1, %9 ]
  call void @llvm.lifetime.end.p0(i64 112, ptr nonnull %6) #34
  ret i32 %.0
}